target datalayout = "e-m:e-p270:32:32-p271:32:32-p272:64:64-i64:64-i128:128-f80:128-n8:16:32:64-S128"
target triple = "x86_64-pc-linux-gnu"

@.str.9 = private unnamed_addr constant [36 x i8] c"../openssl/test/sm2_internal_test.c\00", align 1
@.str.39 = private unnamed_addr constant [30 x i8] c"BN_hex2bn(&priv, privkey_hex)\00", align 1
@.str.40 = private unnamed_addr constant [4 x i8] c"key\00", align 1
@.str.41 = private unnamed_addr constant [29 x i8] c"EC_KEY_set_group(key, group)\00", align 1
@.str.42 = private unnamed_addr constant [34 x i8] c"EC_KEY_set_private_key(key, priv)\00", align 1
@.str.43 = private unnamed_addr constant [3 x i8] c"pt\00", align 1
@.str.44 = private unnamed_addr constant [48 x i8] c"EC_POINT_mul(group, pt, priv, NULL, NULL, NULL)\00", align 1
@.str.45 = private unnamed_addr constant [31 x i8] c"EC_KEY_set_public_key(key, pt)\00", align 1
@fake_rand_bytes = internal global ptr null, align 8
@fake_rand_bytes_offset = internal global i64 0, align 8
@fake_rand_size = internal global i64 0, align 8
@.str.56 = private unnamed_addr constant [54 x i8] c"fake_rand_bytes = OPENSSL_hexstr2buf(hex_bytes, NULL)\00", align 1
@.str.72 = private unnamed_addr constant [4 x i8] c"sig\00", align 1
@.str.73 = private unnamed_addr constant [21 x i8] c"BN_hex2bn(&r, r_hex)\00", align 1
@.str.74 = private unnamed_addr constant [21 x i8] c"BN_hex2bn(&s, s_hex)\00", align 1
@.str.75 = private unnamed_addr constant [2 x i8] c"r\00", align 1
@.str.76 = private unnamed_addr constant [6 x i8] c"sig_r\00", align 1
@.str.77 = private unnamed_addr constant [2 x i8] c"s\00", align 1
@.str.78 = private unnamed_addr constant [6 x i8] c"sig_s\00", align 1
@.str.79 = private unnamed_addr constant [3 x i8] c"ok\00", align 1

; Function Attrs: nounwind uwtable
define internal void @restore_rand() #0 {
  call void @fake_rand_set_public_private_callbacks(ptr noundef null, ptr noundef null)
  %1 = load ptr, ptr @fake_rand_bytes, align 8, !tbaa !13
  call void @CRYPTO_free(ptr noundef %1, ptr noundef @.str.9, i32 noundef 71)
  store ptr null, ptr @fake_rand_bytes, align 8, !tbaa !13
  store i64 0, ptr @fake_rand_bytes_offset, align 8, !tbaa !21
  ret void
}

; Function Attrs: nounwind uwtable
define internal i32 @start_fake_rand(ptr noundef %0) #0 {
  %2 = alloca i32, align 4
  %3 = alloca ptr, align 8
  store ptr %0, ptr %3, align 8, !tbaa !13
  %4 = load ptr, ptr @fake_rand_bytes, align 8, !tbaa !13
  call void @CRYPTO_free(ptr noundef %4, ptr noundef @.str.9, i32 noundef 56)
  store i64 0, ptr @fake_rand_bytes_offset, align 8, !tbaa !21
  %5 = load ptr, ptr %3, align 8, !tbaa !13
  %6 = call i64 @strlen(ptr noundef %5) #5
  %7 = udiv i64 %6, 2
  store i64 %7, ptr @fake_rand_size, align 8, !tbaa !21
  %8 = load ptr, ptr %3, align 8, !tbaa !13
  %9 = call ptr @OPENSSL_hexstr2buf(ptr noundef %8, ptr noundef null)
  store ptr %9, ptr @fake_rand_bytes, align 8, !tbaa !13
  %10 = call i32 @test_ptr(ptr noundef @.str.9, i32 noundef 59, ptr noundef @.str.56, ptr noundef %9)
  %11 = icmp ne i32 %10, 0
  br i1 %11, label %13, label %12

12:                                               ; preds = %1
  store i32 0, ptr %2, align 4
  br label %14

13:                                               ; preds = %1
  call void @fake_rand_set_public_private_callbacks(ptr noundef null, ptr noundef @get_faked_bytes)
  store i32 1, ptr %2, align 4
  br label %14

14:                                               ; preds = %13, %12
  %15 = load i32, ptr %2, align 4
  ret i32 %15
}

; Function Attrs: nounwind uwtable
define internal i32 @test_sm2_sign(ptr noundef %0, ptr noundef %1, ptr noundef %2, ptr noundef %3, ptr noundef %4, ptr noundef %5, ptr noundef %6, i32 noundef %7) #0 {
  %9 = alloca ptr, align 8
  %10 = alloca ptr, align 8
  %11 = alloca ptr, align 8
  %12 = alloca ptr, align 8
  %13 = alloca ptr, align 8
  %14 = alloca ptr, align 8
  %15 = alloca ptr, align 8
  %16 = alloca i32, align 4
  %17 = alloca i64, align 8
  %18 = alloca i32, align 4
  %19 = alloca ptr, align 8
  %20 = alloca ptr, align 8
  %21 = alloca ptr, align 8
  %22 = alloca ptr, align 8
  %23 = alloca ptr, align 8
  %24 = alloca ptr, align 8
  %25 = alloca ptr, align 8
  %26 = alloca ptr, align 8
  store ptr %0, ptr %9, align 8, !tbaa !11
  store ptr %1, ptr %10, align 8, !tbaa !13
  store ptr %2, ptr %11, align 8, !tbaa !13
  store ptr %3, ptr %12, align 8, !tbaa !13
  store ptr %4, ptr %13, align 8, !tbaa !13
  store ptr %5, ptr %14, align 8, !tbaa !13
  store ptr %6, ptr %15, align 8, !tbaa !13
  store i32 %7, ptr %16, align 4, !tbaa !9
  call void @llvm.lifetime.start.p0(i64 8, ptr %17) #4
  %27 = load ptr, ptr %12, align 8, !tbaa !13
  %28 = call i64 @strlen(ptr noundef %27) #5
  store i64 %28, ptr %17, align 8, !tbaa !21
  call void @llvm.lifetime.start.p0(i64 4, ptr %18) #4
  store i32 0, ptr %18, align 4, !tbaa !9
  call void @llvm.lifetime.start.p0(i64 8, ptr %19) #4
  store ptr null, ptr %19, align 8, !tbaa !15
  call void @llvm.lifetime.start.p0(i64 8, ptr %20) #4
  store ptr null, ptr %20, align 8, !tbaa !17
  call void @llvm.lifetime.start.p0(i64 8, ptr %21) #4
  store ptr null, ptr %21, align 8, !tbaa !23
  call void @llvm.lifetime.start.p0(i64 8, ptr %22) #4
  store ptr null, ptr %22, align 8, !tbaa !30
  call void @llvm.lifetime.start.p0(i64 8, ptr %23) #4
  store ptr null, ptr %23, align 8, !tbaa !15
  call void @llvm.lifetime.start.p0(i64 8, ptr %24) #4
  store ptr null, ptr %24, align 8, !tbaa !15
  call void @llvm.lifetime.start.p0(i64 8, ptr %25) #4
  store ptr null, ptr %25, align 8, !tbaa !15
  call void @llvm.lifetime.start.p0(i64 8, ptr %26) #4
  store ptr null, ptr %26, align 8, !tbaa !15
  %29 = load ptr, ptr %11, align 8, !tbaa !13
  %30 = call i32 @BN_hex2bn(ptr noundef %19, ptr noundef %29)
  %31 = icmp ne i32 %30, 0
  %32 = zext i1 %31 to i32
  %33 = call i32 @test_true(ptr noundef @.str.9, i32 noundef 322, ptr noundef @.str.39, i32 noundef %32)
  %34 = icmp ne i32 %33, 0
  br i1 %34, label %36, label %35

35:                                               ; preds = %8
  br label %141

36:                                               ; preds = %8
  %37 = call ptr @EC_KEY_new()
  store ptr %37, ptr %21, align 8, !tbaa !23
  %38 = load ptr, ptr %21, align 8, !tbaa !23
  %39 = call i32 @test_ptr(ptr noundef @.str.9, i32 noundef 326, ptr noundef @.str.40, ptr noundef %38)
  %40 = icmp ne i32 %39, 0
  br i1 %40, label %41, label %57

41:                                               ; preds = %36
  %42 = load ptr, ptr %21, align 8, !tbaa !23
  %43 = load ptr, ptr %9, align 8, !tbaa !11
  %44 = call i32 @EC_KEY_set_group(ptr noundef %42, ptr noundef %43)
  %45 = icmp ne i32 %44, 0
  %46 = zext i1 %45 to i32
  %47 = call i32 @test_true(ptr noundef @.str.9, i32 noundef 327, ptr noundef @.str.41, i32 noundef %46)
  %48 = icmp ne i32 %47, 0
  br i1 %48, label %49, label %57

49:                                               ; preds = %41
  %50 = load ptr, ptr %21, align 8, !tbaa !23
  %51 = load ptr, ptr %19, align 8, !tbaa !15
  %52 = call i32 @EC_KEY_set_private_key(ptr noundef %50, ptr noundef %51)
  %53 = icmp ne i32 %52, 0
  %54 = zext i1 %53 to i32
  %55 = call i32 @test_true(ptr noundef @.str.9, i32 noundef 328, ptr noundef @.str.42, i32 noundef %54)
  %56 = icmp ne i32 %55, 0
  br i1 %56, label %58, label %57

57:                                               ; preds = %49, %41, %36
  br label %141

58:                                               ; preds = %49
  %59 = load i32, ptr %16, align 4, !tbaa !9
  %60 = icmp eq i32 %59, 0
  br i1 %60, label %61, label %86

61:                                               ; preds = %58
  %62 = load ptr, ptr %9, align 8, !tbaa !11
  %63 = call ptr @EC_POINT_new(ptr noundef %62)
  store ptr %63, ptr %20, align 8, !tbaa !17
  %64 = load ptr, ptr %20, align 8, !tbaa !17
  %65 = call i32 @test_ptr(ptr noundef @.str.9, i32 noundef 333, ptr noundef @.str.43, ptr noundef %64)
  %66 = icmp ne i32 %65, 0
  br i1 %66, label %67, label %84

67:                                               ; preds = %61
  %68 = load ptr, ptr %9, align 8, !tbaa !11
  %69 = load ptr, ptr %20, align 8, !tbaa !17
  %70 = load ptr, ptr %19, align 8, !tbaa !15
  %71 = call i32 @EC_POINT_mul(ptr noundef %68, ptr noundef %69, ptr noundef %70, ptr noundef null, ptr noundef null, ptr noundef null)
  %72 = icmp ne i32 %71, 0
  %73 = zext i1 %72 to i32
  %74 = call i32 @test_true(ptr noundef @.str.9, i32 noundef 334, ptr noundef @.str.44, i32 noundef %73)
  %75 = icmp ne i32 %74, 0
  br i1 %75, label %76, label %84

76:                                               ; preds = %67
  %77 = load ptr, ptr %21, align 8, !tbaa !23
  %78 = load ptr, ptr %20, align 8, !tbaa !17
  %79 = call i32 @EC_KEY_set_public_key(ptr noundef %77, ptr noundef %78)
  %80 = icmp ne i32 %79, 0
  %81 = zext i1 %80 to i32
  %82 = call i32 @test_true(ptr noundef @.str.9, i32 noundef 335, ptr noundef @.str.45, i32 noundef %81)
  %83 = icmp ne i32 %82, 0
  br i1 %83, label %85, label %84

84:                                               ; preds = %76, %67, %61
  br label %141

85:                                               ; preds = %76
  br label %86

86:                                               ; preds = %85, %58
  %87 = load ptr, ptr %13, align 8, !tbaa !13
  %88 = call i32 @start_fake_rand(ptr noundef %87)
  %89 = load ptr, ptr %21, align 8, !tbaa !23
  %90 = call ptr @EVP_sm3()
  %91 = load ptr, ptr %10, align 8, !tbaa !13
  %92 = load ptr, ptr %10, align 8, !tbaa !13
  %93 = call i64 @strlen(ptr noundef %92) #5
  %94 = load ptr, ptr %12, align 8, !tbaa !13
  %95 = load i64, ptr %17, align 8, !tbaa !21
  %96 = call ptr @ossl_sm2_do_sign(ptr noundef %89, ptr noundef %90, ptr noundef %91, i64 noundef %93, ptr noundef %94, i64 noundef %95)
  store ptr %96, ptr %22, align 8, !tbaa !30
  %97 = load ptr, ptr %22, align 8, !tbaa !30
  %98 = call i32 @test_ptr(ptr noundef @.str.9, i32 noundef 342, ptr noundef @.str.72, ptr noundef %97)
  %99 = icmp ne i32 %98, 0
  br i1 %99, label %101, label %100

100:                                              ; preds = %86
  call void @restore_rand()
  br label %141

101:                                              ; preds = %86
  call void @restore_rand()
  %102 = load ptr, ptr %22, align 8, !tbaa !30
  call void @ECDSA_SIG_get0(ptr noundef %102, ptr noundef %23, ptr noundef %24)
  %103 = load ptr, ptr %14, align 8, !tbaa !13
  %104 = call i32 @BN_hex2bn(ptr noundef %25, ptr noundef %103)
  %105 = icmp ne i32 %104, 0
  %106 = zext i1 %105 to i32
  %107 = call i32 @test_true(ptr noundef @.str.9, i32 noundef 350, ptr noundef @.str.73, i32 noundef %106)
  %108 = icmp ne i32 %107, 0
  br i1 %108, label %109, label %126

109:                                              ; preds = %101
  %110 = load ptr, ptr %15, align 8, !tbaa !13
  %111 = call i32 @BN_hex2bn(ptr noundef %26, ptr noundef %110)
  %112 = icmp ne i32 %111, 0
  %113 = zext i1 %112 to i32
  %114 = call i32 @test_true(ptr noundef @.str.9, i32 noundef 351, ptr noundef @.str.74, i32 noundef %113)
  %115 = icmp ne i32 %114, 0
  br i1 %115, label %116, label %126

116:                                              ; preds = %109
  %117 = load ptr, ptr %25, align 8, !tbaa !15
  %118 = load ptr, ptr %23, align 8, !tbaa !15
  %119 = call i32 @test_BN_eq(ptr noundef @.str.9, i32 noundef 352, ptr noundef @.str.75, ptr noundef @.str.76, ptr noundef %117, ptr noundef %118)
  %120 = icmp ne i32 %119, 0
  br i1 %120, label %121, label %126

121:                                              ; preds = %116
  %122 = load ptr, ptr %26, align 8, !tbaa !15
  %123 = load ptr, ptr %24, align 8, !tbaa !15
  %124 = call i32 @test_BN_eq(ptr noundef @.str.9, i32 noundef 353, ptr noundef @.str.77, ptr noundef @.str.78, ptr noundef %122, ptr noundef %123)
  %125 = icmp ne i32 %124, 0
  br i1 %125, label %127, label %126

126:                                              ; preds = %121, %116, %109, %101
  br label %141

127:                                              ; preds = %121
  %128 = load ptr, ptr %21, align 8, !tbaa !23
  %129 = call ptr @EVP_sm3()
  %130 = load ptr, ptr %22, align 8, !tbaa !30
  %131 = load ptr, ptr %10, align 8, !tbaa !13
  %132 = load ptr, ptr %10, align 8, !tbaa !13
  %133 = call i64 @strlen(ptr noundef %132) #5
  %134 = load ptr, ptr %12, align 8, !tbaa !13
  %135 = load i64, ptr %17, align 8, !tbaa !21
  %136 = call i32 @ossl_sm2_do_verify(ptr noundef %128, ptr noundef %129, ptr noundef %130, ptr noundef %131, i64 noundef %133, ptr noundef %134, i64 noundef %135)
  store i32 %136, ptr %18, align 4, !tbaa !9
  %137 = load i32, ptr %18, align 4, !tbaa !9
  %138 = icmp ne i32 %137, 0
  %139 = zext i1 %138 to i32
  %140 = call i32 @test_true(ptr noundef @.str.9, i32 noundef 360, ptr noundef @.str.79, i32 noundef %139)
  br label %141

141:                                              ; preds = %127, %126, %100, %84, %57, %35
  %142 = load ptr, ptr %22, align 8, !tbaa !30
  call void @ECDSA_SIG_free(ptr noundef %142)
  %143 = load ptr, ptr %20, align 8, !tbaa !17
  call void @EC_POINT_free(ptr noundef %143)
  %144 = load ptr, ptr %21, align 8, !tbaa !23
  call void @EC_KEY_free(ptr noundef %144)
  %145 = load ptr, ptr %19, align 8, !tbaa !15
  call void @BN_free(ptr noundef %145)
  %146 = load ptr, ptr %25, align 8, !tbaa !15
  call void @BN_free(ptr noundef %146)
  %147 = load ptr, ptr %26, align 8, !tbaa !15
  call void @BN_free(ptr noundef %147)
  %148 = load i32, ptr %18, align 4, !tbaa !9
  call void @llvm.lifetime.end.p0(i64 8, ptr %26) #4
  call void @llvm.lifetime.end.p0(i64 8, ptr %25) #4
  call void @llvm.lifetime.end.p0(i64 8, ptr %24) #4
  call void @llvm.lifetime.end.p0(i64 8, ptr %23) #4
  call void @llvm.lifetime.end.p0(i64 8, ptr %22) #4
  call void @llvm.lifetime.end.p0(i64 8, ptr %21) #4
  call void @llvm.lifetime.end.p0(i64 8, ptr %20) #4
  call void @llvm.lifetime.end.p0(i64 8, ptr %19) #4
  call void @llvm.lifetime.end.p0(i64 4, ptr %18) #4
  call void @llvm.lifetime.end.p0(i64 8, ptr %17) #4
  ret i32 %148
}