; Function Attrs: nounwind uwtable
define internal fastcc i32 @test_sm2_sign(ptr noundef %0, ptr noundef %1, ptr noundef %2, ptr noundef %3, ptr noundef %4, ptr noundef %5, i32 noundef range(i32 0, 2) %6) unnamed_addr #0 {
  %8 = alloca ptr, align 8
  %9 = alloca ptr, align 8
  %10 = alloca ptr, align 8
  %11 = alloca ptr, align 8
  %12 = alloca ptr, align 8
  call void @llvm.lifetime.start.p0(i64 8, ptr nonnull %8) #4
  store ptr null, ptr %8, align 8, !tbaa !9
  call void @llvm.lifetime.start.p0(i64 8, ptr nonnull %9) #4
  store ptr null, ptr %9, align 8, !tbaa !9
  call void @llvm.lifetime.start.p0(i64 8, ptr nonnull %10) #4
  store ptr null, ptr %10, align 8, !tbaa !9
  call void @llvm.lifetime.start.p0(i64 8, ptr nonnull %11) #4
  store ptr null, ptr %11, align 8, !tbaa !9
  call void @llvm.lifetime.start.p0(i64 8, ptr nonnull %12) #4
  store ptr null, ptr %12, align 8, !tbaa !9
  %13 = call i32 @BN_hex2bn(ptr noundef nonnull %8, ptr noundef %2) #4
  %14 = icmp ne i32 %13, 0
  %15 = zext i1 %14 to i32
  %16 = call i32 @test_true(ptr noundef nonnull @.str.9, i32 noundef 322, ptr noundef nonnull @.str.39, i32 noundef %15) #4
  %.not = icmp eq i32 %16, 0
  br i1 %.not, label %84, label %17

17:                                               ; preds = %7
  %18 = call ptr @EC_KEY_new() #4
  %19 = call i32 @test_ptr(ptr noundef nonnull @.str.9, i32 noundef 326, ptr noundef nonnull @.str.40, ptr noundef %18) #4
  %.not36 = icmp eq i32 %19, 0
  br i1 %.not36, label %84, label %20

20:                                               ; preds = %17
  %21 = call i32 @EC_KEY_set_group(ptr noundef %18, ptr noundef %0) #4
  %22 = icmp ne i32 %21, 0
  %23 = zext i1 %22 to i32
  %24 = call i32 @test_true(ptr noundef nonnull @.str.9, i32 noundef 327, ptr noundef nonnull @.str.41, i32 noundef %23) #4
  %.not37 = icmp eq i32 %24, 0
  br i1 %.not37, label %84, label %25

25:                                               ; preds = %20
  %26 = load ptr, ptr %8, align 8, !tbaa !9
  %27 = call i32 @EC_KEY_set_private_key(ptr noundef %18, ptr noundef %26) #4
  %28 = icmp ne i32 %27, 0
  %29 = zext i1 %28 to i32
  %30 = call i32 @test_true(ptr noundef nonnull @.str.9, i32 noundef 328, ptr noundef nonnull @.str.42, i32 noundef %29) #4
  %.not38 = icmp eq i32 %30, 0
  br i1 %.not38, label %84, label %31

31:                                               ; preds = %25
  %32 = icmp eq i32 %6, 0
  br i1 %32, label %33, label %47

33:                                               ; preds = %31
  %34 = call ptr @EC_POINT_new(ptr noundef %0) #4
  %35 = call i32 @test_ptr(ptr noundef nonnull @.str.9, i32 noundef 333, ptr noundef nonnull @.str.43, ptr noundef %34) #4
  %.not39 = icmp eq i32 %35, 0
  br i1 %.not39, label %84, label %36

36:                                               ; preds = %33
  %37 = load ptr, ptr %8, align 8, !tbaa !9
  %38 = call i32 @EC_POINT_mul(ptr noundef %0, ptr noundef %34, ptr noundef %37, ptr noundef null, ptr noundef null, ptr noundef null) #4
  %39 = icmp ne i32 %38, 0
  %40 = zext i1 %39 to i32
  %41 = call i32 @test_true(ptr noundef nonnull @.str.9, i32 noundef 334, ptr noundef nonnull @.str.44, i32 noundef %40) #4
  %.not40 = icmp eq i32 %41, 0
  br i1 %.not40, label %84, label %42

42:                                               ; preds = %36
  %43 = call i32 @EC_KEY_set_public_key(ptr noundef %18, ptr noundef %34) #4
  %44 = icmp ne i32 %43, 0
  %45 = zext i1 %44 to i32
  %46 = call i32 @test_true(ptr noundef nonnull @.str.9, i32 noundef 335, ptr noundef nonnull @.str.45, i32 noundef %45) #4
  %.not41 = icmp eq i32 %46, 0
  br i1 %.not41, label %84, label %47

47:                                               ; preds = %42, %31
  %.1 = phi ptr [ %34, %42 ], [ null, %31 ]
  %48 = load ptr, ptr @fake_rand_bytes, align 8, !tbaa !13
  call void @CRYPTO_free(ptr noundef %48, ptr noundef nonnull @.str.9, i32 noundef 56) #4
  store i64 0, ptr @fake_rand_bytes_offset, align 8, !tbaa !11
  %49 = call i64 @strlen(ptr noundef nonnull dereferenceable(1) %3) #5
  %50 = lshr i64 %49, 1
  store i64 %50, ptr @fake_rand_size, align 8, !tbaa !11
  %51 = call ptr @OPENSSL_hexstr2buf(ptr noundef nonnull %3, ptr noundef null) #4
  store ptr %51, ptr @fake_rand_bytes, align 8, !tbaa !13
  %52 = call i32 @test_ptr(ptr noundef nonnull @.str.9, i32 noundef 59, ptr noundef nonnull @.str.56, ptr noundef %51) #4
  %.not.i = icmp eq i32 %52, 0
  br i1 %.not.i, label %start_fake_rand.exit, label %53

53:                                               ; preds = %47
  call void @fake_rand_set_public_private_callbacks(ptr noundef null, ptr noundef nonnull @get_faked_bytes) #4
  br label %start_fake_rand.exit

start_fake_rand.exit:                             ; preds = %47, %53
  %54 = call ptr @EVP_sm3() #4
  %55 = call i64 @strlen(ptr noundef nonnull dereferenceable(1) %1) #5
  %56 = call ptr @ossl_sm2_do_sign(ptr noundef %18, ptr noundef %54, ptr noundef nonnull %1, i64 noundef %55, ptr noundef nonnull @.str.63, i64 noundef 14) #4
  %57 = call i32 @test_ptr(ptr noundef nonnull @.str.9, i32 noundef 342, ptr noundef nonnull @.str.72, ptr noundef %56) #4
  %.not42 = icmp eq i32 %57, 0
  call void @fake_rand_set_public_private_callbacks(ptr noundef null, ptr noundef null) #4
  %58 = load ptr, ptr @fake_rand_bytes, align 8, !tbaa !13
  call void @CRYPTO_free(ptr noundef %58, ptr noundef nonnull @.str.9, i32 noundef 71) #4
  store ptr null, ptr @fake_rand_bytes, align 8, !tbaa !13
  store i64 0, ptr @fake_rand_bytes_offset, align 8, !tbaa !11
  br i1 %.not42, label %84, label %59

59:                                               ; preds = %start_fake_rand.exit
  call void @ECDSA_SIG_get0(ptr noundef %56, ptr noundef nonnull %9, ptr noundef nonnull %10) #4
  %60 = call i32 @BN_hex2bn(ptr noundef nonnull %11, ptr noundef %4) #4
  %61 = icmp ne i32 %60, 0
  %62 = zext i1 %61 to i32
  %63 = call i32 @test_true(ptr noundef nonnull @.str.9, i32 noundef 350, ptr noundef nonnull @.str.73, i32 noundef %62) #4
  %.not43 = icmp eq i32 %63, 0
  br i1 %.not43, label %84, label %64

64:                                               ; preds = %59
  %65 = call i32 @BN_hex2bn(ptr noundef nonnull %12, ptr noundef %5) #4
  %66 = icmp ne i32 %65, 0
  %67 = zext i1 %66 to i32
  %68 = call i32 @test_true(ptr noundef nonnull @.str.9, i32 noundef 351, ptr noundef nonnull @.str.74, i32 noundef %67) #4
  %.not44 = icmp eq i32 %68, 0
  br i1 %.not44, label %84, label %69

69:                                               ; preds = %64
  %70 = load ptr, ptr %11, align 8, !tbaa !9
  %71 = load ptr, ptr %9, align 8, !tbaa !9
  %72 = call i32 @test_BN_eq(ptr noundef nonnull @.str.9, i32 noundef 352, ptr noundef nonnull @.str.75, ptr noundef nonnull @.str.76, ptr noundef %70, ptr noundef %71) #4
  %.not45 = icmp eq i32 %72, 0
  br i1 %.not45, label %84, label %73

73:                                               ; preds = %69
  %74 = load ptr, ptr %12, align 8, !tbaa !9
  %75 = load ptr, ptr %10, align 8, !tbaa !9
  %76 = call i32 @test_BN_eq(ptr noundef nonnull @.str.9, i32 noundef 353, ptr noundef nonnull @.str.77, ptr noundef nonnull @.str.78, ptr noundef %74, ptr noundef %75) #4
  %.not46 = icmp eq i32 %76, 0
  br i1 %.not46, label %84, label %77

77:                                               ; preds = %73
  %78 = call ptr @EVP_sm3() #4
  %79 = call i64 @strlen(ptr noundef nonnull dereferenceable(1) %1) #5
  %80 = call i32 @ossl_sm2_do_verify(ptr noundef %18, ptr noundef %78, ptr noundef %56, ptr noundef nonnull %1, i64 noundef %79, ptr noundef nonnull @.str.63, i64 noundef 14) #4
  %81 = icmp ne i32 %80, 0
  %82 = zext i1 %81 to i32
  %83 = call i32 @test_true(ptr noundef nonnull @.str.9, i32 noundef 360, ptr noundef nonnull @.str.79, i32 noundef %82) #4
  br label %84

84:                                               ; preds = %start_fake_rand.exit, %59, %64, %69, %73, %33, %36, %42, %17, %20, %25, %7, %77
  %.035 = phi i32 [ %80, %77 ], [ 0, %73 ], [ 0, %69 ], [ 0, %64 ], [ 0, %59 ], [ 0, %42 ], [ 0, %36 ], [ 0, %33 ], [ 0, %25 ], [ 0, %20 ], [ 0, %17 ], [ 0, %7 ], [ 0, %start_fake_rand.exit ]
  %.034 = phi ptr [ %.1, %77 ], [ %.1, %73 ], [ %.1, %69 ], [ %.1, %64 ], [ %.1, %59 ], [ %34, %42 ], [ %34, %36 ], [ %34, %33 ], [ null, %25 ], [ null, %20 ], [ null, %17 ], [ null, %7 ], [ %.1, %start_fake_rand.exit ]
  %.033 = phi ptr [ %18, %77 ], [ %18, %73 ], [ %18, %69 ], [ %18, %64 ], [ %18, %59 ], [ %18, %42 ], [ %18, %36 ], [ %18, %33 ], [ %18, %25 ], [ %18, %20 ], [ %18, %17 ], [ null, %7 ], [ %18, %start_fake_rand.exit ]
  %.0 = phi ptr [ %56, %77 ], [ %56, %73 ], [ %56, %69 ], [ %56, %64 ], [ %56, %59 ], [ null, %42 ], [ null, %36 ], [ null, %33 ], [ null, %25 ], [ null, %20 ], [ null, %17 ], [ null, %7 ], [ %56, %start_fake_rand.exit ]
  call void @ECDSA_SIG_free(ptr noundef %.0) #4
  call void @EC_POINT_free(ptr noundef %.034) #4
  call void @EC_KEY_free(ptr noundef %.033) #4
  %85 = load ptr, ptr %8, align 8, !tbaa !9
  call void @BN_free(ptr noundef %85) #4
  %86 = load ptr, ptr %11, align 8, !tbaa !9
  call void @BN_free(ptr noundef %86) #4
  %87 = load ptr, ptr %12, align 8, !tbaa !9
  call void @BN_free(ptr noundef %87) #4
  call void @llvm.lifetime.end.p0(i64 8, ptr nonnull %12) #4
  call void @llvm.lifetime.end.p0(i64 8, ptr nonnull %11) #4
  call void @llvm.lifetime.end.p0(i64 8, ptr nonnull %10) #4
  call void @llvm.lifetime.end.p0(i64 8, ptr nonnull %9) #4
  call void @llvm.lifetime.end.p0(i64 8, ptr nonnull %8) #4
  ret i32 %.035
}